target datalayout = "e-m:e-p270:32:32-p271:32:32-p272:64:64-i64:64-i128:128-f80:128-n8:16:32:64-S128"
target triple = "x86_64-pc-linux-gnu"

%class.LogTagSet = type { ptr, i64, [5 x i32], [4 x i8], %class.LogOutputList, %class.LogDecorators, ptr }
%class.LogOutputList = type <{ [6 x ptr], i32, [4 x i8] }>
%class.LogDecorators = type { i32 }
%class.elapsedTimer = type <{ i64, i64, i8, [7 x i8] }>
%class.HandleMark = type { ptr, ptr, ptr, ptr, ptr, i64, ptr }
%class.TraceTime = type { i8, i8, [6 x i8], %class.elapsedTimer, ptr, ptr, ptr }

@.str.5 = private unnamed_addr constant [17 x i8] c"FollowReferences\00", align 1
@_ZN16LogTagSetMappingILN6LogTag4typeE69ELS1_98ELS1_0ELS1_0ELS1_0ELS1_0EE7_tagsetE = linkonce_odr hidden global %class.LogTagSet zeroinitializer, comdat, align 8
@_ZN15java_lang_Class13_klass_offsetE = external global i32, align 4
@_ZN6Thread12_thr_currentE = external thread_local global ptr, align 8

; Function Attrs: mustprogress nounwind uwtable
define linkonce_odr hidden noundef zeroext i1 @_ZNK13LogOutputList8is_levelEN8LogLevel4typeE(ptr noundef nonnull align 8 dereferenceable(52) %0, i32 noundef %1) #1 comdat align 2 {
  %3 = alloca ptr, align 8
  %4 = alloca i32, align 4
  store ptr %0, ptr %3, align 8
  store i32 %1, ptr %4, align 4
  %5 = load ptr, ptr %3, align 8
  %6 = getelementptr inbounds %class.LogOutputList, ptr %5, i32 0, i32 0
  %7 = load i32, ptr %4, align 4
  %8 = zext i32 %7 to i64
  %9 = getelementptr inbounds [6 x ptr], ptr %6, i64 0, i64 %8
  %10 = load volatile ptr, ptr %9, align 8
  %11 = icmp ne ptr %10, null
  ret i1 %11
}

; Function Attrs: mustprogress nounwind uwtable
define linkonce_odr hidden noundef zeroext i1 @_ZNK9LogTagSet8is_levelEN8LogLevel4typeE(ptr noundef nonnull align 8 dereferenceable(112) %0, i32 noundef %1) #1 comdat align 2 {
  %3 = alloca ptr, align 8
  %4 = alloca i32, align 4
  store ptr %0, ptr %3, align 8
  store i32 %1, ptr %4, align 4
  %5 = load ptr, ptr %3, align 8
  %6 = getelementptr inbounds %class.LogTagSet, ptr %5, i32 0, i32 4
  %7 = load i32, ptr %4, align 4
  %8 = call noundef zeroext i1 @_ZNK13LogOutputList8is_levelEN8LogLevel4typeE(ptr noundef nonnull align 8 dereferenceable(52) %6, i32 noundef %7)
  ret i1 %8
}

; Function Attrs: mustprogress nounwind uwtable
define linkonce_odr hidden noundef nonnull align 8 dereferenceable(112) ptr @_ZN16LogTagSetMappingILN6LogTag4typeE69ELS1_98ELS1_0ELS1_0ELS1_0ELS1_0EE6tagsetEv() #1 comdat align 2 {
  ret ptr @_ZN16LogTagSetMappingILN6LogTag4typeE69ELS1_98ELS1_0ELS1_0ELS1_0ELS1_0EE7_tagsetE
}

; Function Attrs: mustprogress nounwind uwtable
define linkonce_odr hidden noundef ptr @_ZN6Thread15current_or_nullEv() #1 comdat align 2 {
  %1 = call align 8 ptr @llvm.threadlocal.address.p0(ptr align 8 @_ZN6Thread12_thr_currentE)
  %2 = load ptr, ptr %1, align 8
  ret ptr %2
}

; Function Attrs: mustprogress nounwind uwtable
define linkonce_odr hidden noundef zeroext i1 @_ZN7LogImplILN6LogTag4typeE69ELS1_98ELS1_0ELS1_0ELS1_0ELS1_0EE8is_levelEN8LogLevel4typeE(i32 noundef %0) #1 comdat align 2 {
  %2 = alloca i32, align 4
  store i32 %0, ptr %2, align 4
  %3 = call noundef nonnull align 8 dereferenceable(112) ptr @_ZN16LogTagSetMappingILN6LogTag4typeE69ELS1_98ELS1_0ELS1_0ELS1_0ELS1_0EE6tagsetEv()
  %4 = load i32, ptr %2, align 4
  %5 = call noundef zeroext i1 @_ZNK9LogTagSet8is_levelEN8LogLevel4typeE(ptr noundef nonnull align 8 dereferenceable(112) %3, i32 noundef %4)
  ret i1 %5
}

; Function Attrs: mustprogress nounwind uwtable
define linkonce_odr hidden void @_ZN10HandleMarkC2EP6Thread(ptr noundef nonnull align 8 dereferenceable(56) %0, ptr noundef %1) unnamed_addr #1 comdat align 2 {
  %3 = alloca ptr, align 8
  %4 = alloca ptr, align 8
  store ptr %0, ptr %3, align 8
  store ptr %1, ptr %4, align 8
  %5 = load ptr, ptr %3, align 8
  %6 = load ptr, ptr %4, align 8
  call void @_ZN10HandleMark10initializeEP6Thread(ptr noundef nonnull align 8 dereferenceable(56) %5, ptr noundef %6)
  ret void
}

; Function Attrs: mustprogress nounwind uwtable
define linkonce_odr hidden noundef ptr @_ZN6Thread7currentEv() #1 comdat align 2 {
  %1 = alloca ptr, align 8
  %2 = call noundef ptr @_ZN6Thread15current_or_nullEv()
  store ptr %2, ptr %1, align 8
  %3 = load ptr, ptr %1, align 8
  ret ptr %3
}

; Function Attrs: mustprogress nounwind uwtable
define linkonce_odr hidden noundef ptr @_ZN15java_lang_Class8as_KlassEP7oopDesc(ptr noundef %0) #1 comdat align 2 {
  %2 = alloca ptr, align 8
  %3 = alloca ptr, align 8
  store ptr %0, ptr %2, align 8
  %4 = load ptr, ptr %2, align 8
  %5 = load i32, ptr @_ZN15java_lang_Class13_klass_offsetE, align 4
  %6 = call noundef ptr @_ZNK7oopDesc14metadata_fieldEi(ptr noundef nonnull align 8 dereferenceable(16) %4, i32 noundef %5)
  store ptr %6, ptr %3, align 8
  %7 = load ptr, ptr %3, align 8
  ret ptr %7
}

; Function Attrs: mustprogress nounwind uwtable
define linkonce_odr hidden noundef zeroext i1 @_ZN15java_lang_Class12is_primitiveEP7oopDesc(ptr noundef %0) #1 comdat align 2 {
  %2 = alloca ptr, align 8
  %3 = alloca i8, align 1
  store ptr %0, ptr %2, align 8
  %4 = load ptr, ptr %2, align 8
  %5 = load i32, ptr @_ZN15java_lang_Class13_klass_offsetE, align 4
  %6 = call noundef ptr @_ZNK7oopDesc14metadata_fieldEi(ptr noundef nonnull align 8 dereferenceable(16) %4, i32 noundef %5)
  %7 = icmp eq ptr %6, null
  %8 = zext i1 %7 to i8
  store i8 %8, ptr %3, align 1
  %9 = load i8, ptr %3, align 1
  %10 = trunc i8 %9 to i1
  ret i1 %10
}

; Function Attrs: mustprogress nounwind uwtable
define hidden noundef i32 @_ZN8JvmtiEnv16FollowReferencesEiP7_jclassP8_jobjectPK18jvmtiHeapCallbacksPKv(ptr noundef nonnull align 8 dereferenceable(460) %0, i32 noundef %1, ptr noundef %2, ptr noundef %3, ptr noundef %4, ptr noundef %5) #1 align 2 {
  %7 = alloca i32, align 4
  %8 = alloca ptr, align 8
  %9 = alloca i32, align 4
  %10 = alloca ptr, align 8
  %11 = alloca ptr, align 8
  %12 = alloca ptr, align 8
  %13 = alloca ptr, align 8
  %14 = alloca ptr, align 8
  %15 = alloca ptr, align 8
  %16 = alloca ptr, align 8
  %17 = alloca ptr, align 8
  %18 = alloca %class.HandleMark, align 8
  %19 = alloca %class.TraceTime, align 8
  store ptr %0, ptr %8, align 8
  store i32 %1, ptr %9, align 4
  store ptr %2, ptr %10, align 8
  store ptr %3, ptr %11, align 8
  store ptr %4, ptr %12, align 8
  store ptr %5, ptr %13, align 8
  %20 = load ptr, ptr %8, align 8
  store ptr null, ptr %14, align 8
  %21 = load ptr, ptr %10, align 8
  %22 = icmp ne ptr %21, null
  br i1 %22, label %23, label %40

23:                                               ; preds = %6
  %24 = load ptr, ptr %10, align 8
  %25 = call noundef ptr @_ZN10JNIHandles22resolve_external_guardEP8_jobject(ptr noundef %24)
  store ptr %25, ptr %15, align 8
  %26 = load ptr, ptr %15, align 8
  %27 = icmp eq ptr %26, null
  br i1 %27, label %28, label %29

28:                                               ; preds = %23
  store i32 21, ptr %7, align 4
  br label %61

29:                                               ; preds = %23
  %30 = load ptr, ptr %15, align 8
  %31 = call noundef zeroext i1 @_ZN15java_lang_Class12is_primitiveEP7oopDesc(ptr noundef %30)
  br i1 %31, label %32, label %33

32:                                               ; preds = %29
  store i32 0, ptr %7, align 4
  br label %61

33:                                               ; preds = %29
  %34 = load ptr, ptr %15, align 8
  %35 = call noundef ptr @_ZN15java_lang_Class8as_KlassEP7oopDesc(ptr noundef %34)
  store ptr %35, ptr %14, align 8
  %36 = load ptr, ptr %10, align 8
  %37 = icmp eq ptr %36, null
  br i1 %37, label %38, label %39

38:                                               ; preds = %33
  store i32 21, ptr %7, align 4
  br label %61

39:                                               ; preds = %33
  br label %40

40:                                               ; preds = %39, %6
  %41 = load ptr, ptr %11, align 8
  %42 = icmp ne ptr %41, null
  br i1 %42, label %43, label %50

43:                                               ; preds = %40
  %44 = load ptr, ptr %11, align 8
  %45 = call noundef ptr @_ZN10JNIHandles22resolve_external_guardEP8_jobject(ptr noundef %44)
  store ptr %45, ptr %16, align 8
  %46 = load ptr, ptr %16, align 8
  %47 = icmp eq ptr %46, null
  br i1 %47, label %48, label %49

48:                                               ; preds = %43
  store i32 20, ptr %7, align 4
  br label %61

49:                                               ; preds = %43
  br label %50

50:                                               ; preds = %49, %40
  %51 = call noundef ptr @_ZN6Thread7currentEv()
  store ptr %51, ptr %17, align 8
  %52 = load ptr, ptr %17, align 8
  call void @_ZN10HandleMarkC2EP6Thread(ptr noundef nonnull align 8 dereferenceable(56) %18, ptr noundef %52)
  %53 = call noundef zeroext i1 @_ZN7LogImplILN6LogTag4typeE69ELS1_98ELS1_0ELS1_0ELS1_0ELS1_0EE8is_levelEN8LogLevel4typeE(i32 noundef 2)
  %54 = select i1 %53, ptr @_ZN7LogImplILN6LogTag4typeE69ELS1_98ELS1_0ELS1_0ELS1_0ELS1_0EE5writeILN8LogLevel4typeE2EEEvPKcz, ptr null
  call void @_ZN9TraceTimeC1EPKcPFvS1_zE(ptr noundef nonnull align 8 dereferenceable(56) %19, ptr noundef @.str.5, ptr noundef %54)
  %55 = call noundef ptr @_ZN11JvmtiTagMap11tag_map_forEP8JvmtiEnv(ptr noundef %20)
  %56 = load i32, ptr %9, align 4
  %57 = load ptr, ptr %14, align 8
  %58 = load ptr, ptr %11, align 8
  %59 = load ptr, ptr %12, align 8
  %60 = load ptr, ptr %13, align 8
  call void @_ZN11JvmtiTagMap17follow_referencesEiP5KlassP8_jobjectPK18jvmtiHeapCallbacksPKv(ptr noundef nonnull align 8 dereferenceable(122) %55, i32 noundef %56, ptr noundef %57, ptr noundef %58, ptr noundef %59, ptr noundef %60)
  store i32 0, ptr %7, align 4
  call void @_ZN9TraceTimeD1Ev(ptr noundef nonnull align 8 dereferenceable(56) %19) #9
  call void @_ZN10HandleMarkD1Ev(ptr noundef nonnull align 8 dereferenceable(56) %18) #9
  br label %61

61:                                               ; preds = %50, %48, %38, %32, %28
  %62 = load i32, ptr %7, align 4
  ret i32 %62
}