; Function Attrs: mustprogress nounwind uwtable
define hidden noundef range(i32 0, 22) i32 @_ZN8JvmtiEnv16FollowReferencesEiP7_jclassP8_jobjectPK18jvmtiHeapCallbacksPKv(ptr noundef nonnull align 8 dereferenceable(460) %0, i32 noundef %1, ptr noundef %2, ptr noundef %3, ptr noundef %4, ptr noundef %5) local_unnamed_addr #0 align 2 {
  %7 = alloca %class.HandleMark, align 8
  %8 = alloca %class.TraceTime, align 8
  %.not = icmp eq ptr %2, null
  br i1 %.not, label %19, label %9

9:                                                ; preds = %6
  %10 = tail call noundef ptr @_ZN10JNIHandles22resolve_external_guardEP8_jobject(ptr noundef nonnull %2) #17
  %11 = icmp eq ptr %10, null
  br i1 %11, label %29, label %12

12:                                               ; preds = %9
  %13 = load i32, ptr @_ZN15java_lang_Class13_klass_offsetE, align 4
  %14 = tail call noundef ptr @_ZNK7oopDesc14metadata_fieldEi(ptr noundef nonnull align 8 dereferenceable(16) %10, i32 noundef %13) #17
  %15 = icmp eq ptr %14, null
  br i1 %15, label %29, label %16

16:                                               ; preds = %12
  %17 = load i32, ptr @_ZN15java_lang_Class13_klass_offsetE, align 4
  %18 = tail call noundef ptr @_ZNK7oopDesc14metadata_fieldEi(ptr noundef nonnull align 8 dereferenceable(16) %10, i32 noundef %17) #17
  br label %19

19:                                               ; preds = %16, %6
  %.016 = phi ptr [ %18, %16 ], [ null, %6 ]
  %.not20 = icmp eq ptr %3, null
  br i1 %.not20, label %23, label %20

20:                                               ; preds = %19
  %21 = tail call noundef ptr @_ZN10JNIHandles22resolve_external_guardEP8_jobject(ptr noundef nonnull %3) #17
  %22 = icmp eq ptr %21, null
  br i1 %22, label %29, label %23

23:                                               ; preds = %20, %19
  %24 = tail call align 8 ptr @llvm.threadlocal.address.p0(ptr align 8 @_ZN6Thread12_thr_currentE)
  %25 = load ptr, ptr %24, align 8
  call void @_ZN10HandleMark10initializeEP6Thread(ptr noundef nonnull align 8 dereferenceable(56) %7, ptr noundef %25) #17
  %26 = load volatile ptr, ptr getelementptr inbounds (i8, ptr @_ZN16LogTagSetMappingILN6LogTag4typeE69ELS1_98ELS1_0ELS1_0ELS1_0ELS1_0EE7_tagsetE, i64 56), align 8
  %.not21 = icmp eq ptr %26, null
  %27 = select i1 %.not21, ptr null, ptr @_ZN7LogImplILN6LogTag4typeE69ELS1_98ELS1_0ELS1_0ELS1_0ELS1_0EE5writeILN8LogLevel4typeE2EEEvPKcz
  call void @_ZN9TraceTimeC1EPKcPFvS1_zE(ptr noundef nonnull align 8 dereferenceable(56) %8, ptr noundef nonnull @.str.5, ptr noundef %27) #17
  %28 = call noundef ptr @_ZN11JvmtiTagMap11tag_map_forEP8JvmtiEnv(ptr noundef nonnull %0) #17
  call void @_ZN11JvmtiTagMap17follow_referencesEiP5KlassP8_jobjectPK18jvmtiHeapCallbacksPKv(ptr noundef nonnull align 8 dereferenceable(122) %28, i32 noundef %1, ptr noundef %.016, ptr noundef %3, ptr noundef %4, ptr noundef %5) #17
  call void @_ZN9TraceTimeD1Ev(ptr noundef nonnull align 8 dereferenceable(56) %8) #17
  call void @_ZN10HandleMarkD1Ev(ptr noundef nonnull align 8 dereferenceable(56) %7) #17
  br label %29

29:                                               ; preds = %20, %12, %9, %23
  %.0 = phi i32 [ 0, %23 ], [ 21, %9 ], [ 0, %12 ], [ 20, %20 ]
  ret i32 %.0
}